target datalayout = "e-m:e-p270:32:32-p271:32:32-p272:64:64-i64:64-i128:128-f80:128-n8:16:32:64-S128"
target triple = "x86_64-pc-linux-gnu"

%struct.job_record = type { i32, ptr, ptr, ptr, ptr, i16, i32, i32, i32, ptr, i32, ptr, ptr, i16, ptr, double, i64, ptr, ptr, ptr, ptr, ptr, ptr, i32, ptr, i32, i64, i64, i32, i32, ptr, i16, i64, i64, i8, i32, ptr, ptr, ptr, ptr, ptr, ptr, ptr, ptr, i32, ptr, ptr, i32, ptr, i32, ptr, i32, ptr, i32, ptr, ptr, ptr, ptr, ptr, ptr, i32, i16, i64, ptr, ptr, ptr, ptr, %struct.acct_policy_limit_set_t, i16, ptr, ptr, ptr, ptr, ptr, i32, ptr, ptr, ptr, ptr, ptr, i32, i32, ptr, ptr, ptr, i16, ptr, ptr, i8, ptr, ptr, i64, i64, i8, i32, i32, i8, i32, ptr, i32, i64, i32, ptr, ptr, ptr, i8, i16, i64, i32, ptr, ptr, ptr, ptr, ptr, i16, i32, ptr, ptr, ptr, ptr, i32, ptr, i32, i16, i64, ptr, i32, i32, ptr, i64, ptr, ptr, i64, i32, i32, i64, i32, i32, ptr, ptr, ptr, ptr, ptr, ptr, ptr, ptr, ptr, ptr, ptr, ptr, i32, ptr, i16, i16, i16, i16, ptr, i32, i32, i8, i64 }
%struct.acct_policy_limit_set_t = type { i16, i16, ptr }
%struct.node_record = type { ptr, ptr, i16, i64, i64, ptr, ptr, ptr, i16, ptr, i16, i16, i32, i32, i64, ptr, i16, i16, ptr, ptr, ptr, ptr, ptr, i64, i64, ptr, ptr, ptr, ptr, i32, ptr, ptr, i64, i64, i32, ptr, i64, ptr, i32, i16, ptr, ptr, i32, ptr, i32, i8, ptr, i32, i16, i16, ptr, i16, i64, i16, i64, ptr, i64, i32, i16, i64, i16, ptr, i16, i64, ptr, i64, i16, i32, i16, ptr, ptr, ptr, i16, i32, i16, i16, i32, ptr, i16, i32 }

; Function Attrs: nounwind uwtable
define dso_local i32 @select_p_job_ready(ptr noundef %0) #0 {
  %2 = alloca i32, align 4
  %3 = alloca ptr, align 8
  %4 = alloca ptr, align 8
  %5 = alloca i32, align 4
  %6 = alloca i32, align 4
  store ptr %0, ptr %3, align 8
  call void @llvm.lifetime.start.p0(i64 8, ptr %4) #8
  %7 = load ptr, ptr %3, align 8
  %8 = getelementptr inbounds nuw %struct.job_record, ptr %7, i32 0, i32 60
  %9 = load i32, ptr %8, align 8
  %10 = and i32 %9, 255
  %11 = icmp eq i32 %10, 1
  br i1 %11, label %19, label %12

12:                                               ; preds = %1
  %13 = load ptr, ptr %3, align 8
  %14 = getelementptr inbounds nuw %struct.job_record, ptr %13, i32 0, i32 60
  %15 = load i32, ptr %14, align 8
  %16 = and i32 %15, 255
  %17 = icmp eq i32 %16, 2
  br i1 %17, label %19, label %18

18:                                               ; preds = %12
  store i32 0, ptr %2, align 4
  store i32 1, ptr %5, align 4
  br label %55

19:                                               ; preds = %12, %1
  %20 = load ptr, ptr %3, align 8
  %21 = getelementptr inbounds nuw %struct.job_record, ptr %20, i32 0, i32 77
  %22 = load ptr, ptr %21, align 8
  %23 = icmp ne ptr %22, null
  br i1 %23, label %25, label %24

24:                                               ; preds = %19
  store i32 1, ptr %2, align 4
  store i32 1, ptr %5, align 4
  br label %55

25:                                               ; preds = %19
  call void @llvm.lifetime.start.p0(i64 4, ptr %6) #8
  store i32 0, ptr %6, align 4
  br label %26

26:                                               ; preds = %49, %25
  %27 = load ptr, ptr %3, align 8
  %28 = getelementptr inbounds nuw %struct.job_record, ptr %27, i32 0, i32 77
  %29 = load ptr, ptr %28, align 8
  %30 = call ptr @next_node_bitmap(ptr noundef %29, ptr noundef %6)
  store ptr %30, ptr %4, align 8
  %31 = icmp ne ptr %30, null
  br i1 %31, label %33, label %32

32:                                               ; preds = %26
  store i32 2, ptr %5, align 4
  br label %52

33:                                               ; preds = %26
  %34 = load ptr, ptr %4, align 8
  %35 = getelementptr inbounds nuw %struct.node_record, ptr %34, i32 0, i32 44
  %36 = load i32, ptr %35, align 8
  %37 = zext i32 %36 to i64
  %38 = and i64 %37, 4096
  %39 = icmp ne i64 %38, 0
  br i1 %39, label %47, label %40

40:                                               ; preds = %33
  %41 = load ptr, ptr %4, align 8
  %42 = getelementptr inbounds nuw %struct.node_record, ptr %41, i32 0, i32 44
  %43 = load i32, ptr %42, align 8
  %44 = zext i32 %43 to i64
  %45 = and i64 %44, 16384
  %46 = icmp ne i64 %45, 0
  br i1 %46, label %47, label %48

47:                                               ; preds = %40, %33
  store i32 0, ptr %2, align 4
  store i32 1, ptr %5, align 4
  br label %52

48:                                               ; preds = %40
  br label %49

49:                                               ; preds = %48
  %50 = load i32, ptr %6, align 4
  %51 = add nsw i32 %50, 1
  store i32 %51, ptr %6, align 4
  br label %26, !llvm.loop !30

52:                                               ; preds = %47, %32
  call void @llvm.lifetime.end.p0(i64 4, ptr %6) #8
  %53 = load i32, ptr %5, align 4
  switch i32 %53, label %55 [
    i32 2, label %54
  ]

54:                                               ; preds = %52
  store i32 1, ptr %2, align 4
  store i32 1, ptr %5, align 4
  br label %55

55:                                               ; preds = %54, %52, %24, %18
  call void @llvm.lifetime.end.p0(i64 8, ptr %4) #8
  %56 = load i32, ptr %2, align 4
  ret i32 %56
}