; Function Attrs: nounwind uwtable
define dso_local range(i32 0, 2) i32 @select_p_job_ready(ptr noundef readonly captures(none) %0) local_unnamed_addr #0 {
  %2 = alloca i32, align 4
  %3 = getelementptr inbounds nuw i8, ptr %0, i64 448
  %4 = load i32, ptr %3, align 8
  %5 = and i32 %4, 255
  %.off = add nsw i32 %5, -1
  %switch = icmp ult i32 %.off, 2
  br i1 %switch, label %6, label %20

6:                                                ; preds = %1
  %7 = getelementptr inbounds nuw i8, ptr %0, i64 584
  %8 = load ptr, ptr %7, align 8
  %.not = icmp eq ptr %8, null
  br i1 %.not, label %20, label %9

9:                                                ; preds = %6
  call void @llvm.lifetime.start.p0(i64 4, ptr nonnull %2) #11
  store i32 0, ptr %2, align 4
  %10 = call ptr @next_node_bitmap(ptr noundef nonnull %8, ptr noundef nonnull %2) #11
  %.not1013 = icmp eq ptr %10, null
  br i1 %.not1013, label %._crit_edge, label %.lr.ph

.lr.ph:                                           ; preds = %9, %15
  %11 = phi ptr [ %19, %15 ], [ %10, %9 ]
  %12 = getelementptr inbounds nuw i8, ptr %11, i64 320
  %13 = load i32, ptr %12, align 8
  %14 = and i32 %13, 20480
  %or.cond = icmp eq i32 %14, 0
  br i1 %or.cond, label %15, label %._crit_edge

15:                                               ; preds = %.lr.ph
  %16 = load i32, ptr %2, align 4
  %17 = add nsw i32 %16, 1
  store i32 %17, ptr %2, align 4
  %18 = load ptr, ptr %7, align 8
  %19 = call ptr @next_node_bitmap(ptr noundef %18, ptr noundef nonnull %2) #11
  %.not10 = icmp eq ptr %19, null
  br i1 %.not10, label %._crit_edge, label %.lr.ph, !llvm.loop !34

._crit_edge:                                      ; preds = %15, %.lr.ph, %9
  %.not10.lcssa = phi i32 [ 1, %9 ], [ 0, %.lr.ph ], [ 1, %15 ]
  call void @llvm.lifetime.end.p0(i64 4, ptr nonnull %2) #11
  br label %20

20:                                               ; preds = %._crit_edge, %1, %6
  %.07 = phi i32 [ 0, %1 ], [ 1, %6 ], [ %.not10.lcssa, %._crit_edge ]
  ret i32 %.07
}